; Function Attrs: nounwind uwtable
define range(i32 -1, 1) i32 @H5FA__dblk_page_create(ptr noundef %0, i64 noundef %1, i64 noundef %2) local_unnamed_addr #0 {
  %4 = tail call ptr @H5FA__dblk_page_alloc(ptr noundef %0, i64 noundef %2)
  %5 = icmp eq ptr %4, null
  br i1 %5, label %6, label %10

6:                                                ; preds = %3
  %7 = load i64, ptr @H5E_FARRAY_g, align 8
  %8 = load i64, ptr @H5E_CANTALLOC_g, align 8
  %9 = tail call i32 (ptr, ptr, i32, i64, i64, ptr, ...) @H5E_printf_stack(ptr noundef nonnull @.str.1, ptr noundef nonnull @__func__.H5FA__dblk_page_create, i32 noundef 152, i64 noundef %7, i64 noundef %8, ptr noundef nonnull @.str.2) #2
  br label %.thread

10:                                               ; preds = %3
  %11 = getelementptr inbounds i8, ptr %4, i64 272
  store i64 %1, ptr %11, align 8
  %12 = getelementptr inbounds i8, ptr %0, i64 248
  %13 = getelementptr inbounds i8, ptr %0, i64 256
  %14 = load i8, ptr %13, align 8
  %15 = zext i8 %14 to i64
  %16 = mul i64 %15, %2
  %17 = add i64 %16, 4
  %18 = getelementptr inbounds i8, ptr %4, i64 280
  store i64 %17, ptr %18, align 8
  %19 = load ptr, ptr %12, align 8
  %20 = getelementptr inbounds i8, ptr %19, i64 40
  %21 = load ptr, ptr %20, align 8
  %22 = getelementptr inbounds i8, ptr %4, i64 248
  %23 = load ptr, ptr %22, align 8
  %24 = tail call i32 %21(ptr noundef %23, i64 noundef %2) #2
  %25 = icmp slt i32 %24, 0
  br i1 %25, label %26, label %30

26:                                               ; preds = %10
  %27 = load i64, ptr @H5E_FARRAY_g, align 8
  %28 = load i64, ptr @H5E_CANTSET_g, align 8
  %29 = tail call i32 (ptr, ptr, i32, i64, i64, ptr, ...) @H5E_printf_stack(ptr noundef nonnull @.str.1, ptr noundef nonnull @__func__.H5FA__dblk_page_create, i32 noundef 164, i64 noundef %27, i64 noundef %28, ptr noundef nonnull @.str.6) #2
  br label %60

30:                                               ; preds = %10
  %31 = getelementptr inbounds i8, ptr %0, i64 328
  %32 = load ptr, ptr %31, align 8
  %33 = load i64, ptr %11, align 8
  %34 = tail call i32 @H5AC_insert_entry(ptr noundef %32, ptr noundef nonnull @H5AC_FARRAY_DBLK_PAGE, i64 noundef %33, ptr noundef nonnull %4, i32 noundef 0) #2
  %35 = icmp slt i32 %34, 0
  br i1 %35, label %36, label %40

36:                                               ; preds = %30
  %37 = load i64, ptr @H5E_FARRAY_g, align 8
  %38 = load i64, ptr @H5E_CANTINSERT_g, align 8
  %39 = tail call i32 (ptr, ptr, i32, i64, i64, ptr, ...) @H5E_printf_stack(ptr noundef nonnull @.str.1, ptr noundef nonnull @__func__.H5FA__dblk_page_create, i32 noundef 168, i64 noundef %37, i64 noundef %38, ptr noundef nonnull @.str.7) #2
  br label %60

40:                                               ; preds = %30
  %41 = getelementptr inbounds i8, ptr %0, i64 384
  %42 = load ptr, ptr %41, align 8
  %.not = icmp eq ptr %42, null
  br i1 %.not, label %.thread, label %43

43:                                               ; preds = %40
  %44 = load ptr, ptr %31, align 8
  %45 = tail call i32 @H5AC_proxy_entry_add_child(ptr noundef nonnull %42, ptr noundef %44, ptr noundef nonnull %4) #2
  %46 = icmp slt i32 %45, 0
  br i1 %46, label %50, label %47

47:                                               ; preds = %43
  %48 = load ptr, ptr %41, align 8
  %49 = getelementptr inbounds i8, ptr %4, i64 264
  store ptr %48, ptr %49, align 8
  br label %.thread

50:                                               ; preds = %43
  %51 = load i64, ptr @H5E_FARRAY_g, align 8
  %52 = load i64, ptr @H5E_CANTSET_g, align 8
  %53 = tail call i32 (ptr, ptr, i32, i64, i64, ptr, ...) @H5E_printf_stack(ptr noundef nonnull @.str.1, ptr noundef nonnull @__func__.H5FA__dblk_page_create, i32 noundef 175, i64 noundef %51, i64 noundef %52, ptr noundef nonnull @.str.8) #2
  %54 = tail call i32 @H5AC_remove_entry(ptr noundef nonnull %4) #2
  %55 = icmp slt i32 %54, 0
  br i1 %55, label %56, label %60

56:                                               ; preds = %50
  %57 = load i64, ptr @H5E_FARRAY_g, align 8
  %58 = load i64, ptr @H5E_CANTREMOVE_g, align 8
  %59 = tail call i32 (ptr, ptr, i32, i64, i64, ptr, ...) @H5E_printf_stack(ptr noundef nonnull @.str.1, ptr noundef nonnull @__func__.H5FA__dblk_page_create, i32 noundef 186, i64 noundef %57, i64 noundef %58, ptr noundef nonnull @.str.9) #2
  br label %60

60:                                               ; preds = %26, %36, %50, %56
  %61 = getelementptr inbounds i8, ptr %4, i64 256
  %62 = load ptr, ptr %61, align 8
  %.not.i = icmp eq ptr %62, null
  br i1 %.not.i, label %H5FA__dblk_page_dest.exit, label %63

63:                                               ; preds = %60
  %64 = load ptr, ptr %22, align 8
  %.not9.i = icmp eq ptr %64, null
  br i1 %.not9.i, label %67, label %65

65:                                               ; preds = %63
  %66 = tail call ptr @H5FL_blk_free(ptr noundef nonnull @H5_page_elmts_blk_free_list, ptr noundef nonnull %64) #2
  store ptr %66, ptr %22, align 8
  %.pre.i = load ptr, ptr %61, align 8
  br label %67

67:                                               ; preds = %65, %63
  %68 = phi ptr [ %.pre.i, %65 ], [ %62, %63 ]
  %69 = tail call i32 @H5FA__hdr_decr(ptr noundef %68) #2
  %70 = icmp slt i32 %69, 0
  br i1 %70, label %73, label %71

71:                                               ; preds = %67
  store ptr null, ptr %61, align 8
  br label %H5FA__dblk_page_dest.exit

H5FA__dblk_page_dest.exit:                        ; preds = %60, %71
  %72 = tail call ptr @H5FL_reg_free(ptr noundef nonnull @H5_H5FA_dblk_page_t_reg_free_list, ptr noundef nonnull %4) #2
  br label %.thread

73:                                               ; preds = %67
  %74 = load i64, ptr @H5E_FARRAY_g, align 8
  %75 = load i64, ptr @H5E_CANTDEC_g, align 8
  %76 = tail call i32 (ptr, ptr, i32, i64, i64, ptr, ...) @H5E_printf_stack(ptr noundef nonnull @.str.1, ptr noundef nonnull @__func__.H5FA__dblk_page_dest, i32 noundef 329, i64 noundef %74, i64 noundef %75, ptr noundef nonnull @.str.12) #2
  %77 = load i64, ptr @H5E_FARRAY_g, align 8
  %78 = load i64, ptr @H5E_CANTFREE_g, align 8
  %79 = tail call i32 (ptr, ptr, i32, i64, i64, ptr, ...) @H5E_printf_stack(ptr noundef nonnull @.str.1, ptr noundef nonnull @__func__.H5FA__dblk_page_create, i32 noundef 190, i64 noundef %77, i64 noundef %78, ptr noundef nonnull @.str.5) #2
  br label %.thread

.thread:                                          ; preds = %6, %40, %47, %H5FA__dblk_page_dest.exit, %73
  %.2 = phi i32 [ -1, %73 ], [ -1, %H5FA__dblk_page_dest.exit ], [ 0, %40 ], [ 0, %47 ], [ -1, %6 ]
  ret i32 %.2
}